target datalayout = "e-m:e-p270:32:32-p271:32:32-p272:64:64-i64:64-i128:128-f80:128-n8:16:32:64-S128"
target triple = "x86_64-pc-linux-gnu"

%struct.stbi__zhuffman = type { [512 x i16], [16 x i16], [17 x i32], [16 x i16], [288 x i8], [288 x i16] }
%struct.stbi__zbuf = type { ptr, ptr, i32, i32, i32, ptr, ptr, ptr, i32, %struct.stbi__zhuffman, %struct.stbi__zhuffman }

; Function Attrs: nounwind uwtable
define i32 @stbi__zeof(ptr noundef %0) #0 {
  %2 = alloca ptr, align 8
  store ptr %0, ptr %2, align 8, !tbaa !3
  %3 = load ptr, ptr %2, align 8, !tbaa !3
  %4 = getelementptr inbounds nuw %struct.stbi__zbuf, ptr %3, i32 0, i32 0
  %5 = load ptr, ptr %4, align 8, !tbaa !285
  %6 = load ptr, ptr %2, align 8, !tbaa !3
  %7 = getelementptr inbounds nuw %struct.stbi__zbuf, ptr %6, i32 0, i32 1
  %8 = load ptr, ptr %7, align 8, !tbaa !288
  %9 = icmp uge ptr %5, %8
  %10 = zext i1 %9 to i32
  ret i32 %10
}

; Function Attrs: nounwind uwtable
define zeroext i8 @stbi__zget8(ptr noundef %0) #0 {
  %2 = alloca ptr, align 8
  store ptr %0, ptr %2, align 8, !tbaa !3
  %3 = load ptr, ptr %2, align 8, !tbaa !3
  %4 = call i32 @stbi__zeof(ptr noundef %3)
  %5 = icmp ne i32 %4, 0
  br i1 %5, label %6, label %7

6:                                                ; preds = %1
  br label %14

7:                                                ; preds = %1
  %8 = load ptr, ptr %2, align 8, !tbaa !3
  %9 = getelementptr inbounds nuw %struct.stbi__zbuf, ptr %8, i32 0, i32 0
  %10 = load ptr, ptr %9, align 8, !tbaa !285
  %11 = getelementptr inbounds nuw i8, ptr %10, i32 1
  store ptr %11, ptr %9, align 8, !tbaa !285
  %12 = load i8, ptr %10, align 1, !tbaa !23
  %13 = zext i8 %12 to i32
  br label %14

14:                                               ; preds = %7, %6
  %15 = phi i32 [ 0, %6 ], [ %13, %7 ]
  %16 = trunc i32 %15 to i8
  ret i8 %16
}