; Function Attrs: mustprogress nofree norecurse nosync nounwind willreturn memory(read, argmem: readwrite, inaccessiblemem: none) uwtable
define zeroext i8 @stbi__zget8(ptr noundef captures(none) %0) local_unnamed_addr #25 {
  %2 = load ptr, ptr %0, align 8, !tbaa !275
  %3 = getelementptr inbounds nuw i8, ptr %0, i64 8
  %4 = load ptr, ptr %3, align 8, !tbaa !278
  %.not2 = icmp ult ptr %2, %4
  br i1 %.not2, label %5, label %8

5:                                                ; preds = %1
  %6 = getelementptr inbounds nuw i8, ptr %2, i64 1
  store ptr %6, ptr %0, align 8, !tbaa !275
  %7 = load i8, ptr %2, align 1, !tbaa !21
  br label %8

8:                                                ; preds = %1, %5
  %9 = phi i8 [ %7, %5 ], [ 0, %1 ]
  ret i8 %9
}